; Function Attrs: nounwind uwtable
define i32 @uv_fs_fstat(ptr noundef %loop, ptr noundef %req, i32 noundef %file, ptr noundef %cb) local_unnamed_addr #0 {
entry:
  %cmp = icmp eq ptr %req, null
  br i1 %cmp, label %do.end18, label %do.body1

do.body1:                                         ; preds = %entry
  %type = getelementptr inbounds nuw i8, ptr %req, i64 8
  store i32 6, ptr %type, align 8
  %fs_type = getelementptr inbounds nuw i8, ptr %req, i64 64
  store i32 8, ptr %fs_type, align 8
  %result = getelementptr inbounds nuw i8, ptr %req, i64 88
  %loop2 = getelementptr inbounds nuw i8, ptr %req, i64 72
  tail call void @llvm.memset.p0.i64(ptr noundef nonnull align 8 dereferenceable(16) %result, i8 0, i64 16, i1 false)
  store ptr %loop, ptr %loop2, align 8
  %path = getelementptr inbounds nuw i8, ptr %req, i64 104
  store ptr null, ptr %path, align 8
  %new_path = getelementptr inbounds nuw i8, ptr %req, i64 272
  store ptr null, ptr %new_path, align 8
  %bufs = getelementptr inbounds nuw i8, ptr %req, i64 296
  store ptr null, ptr %bufs, align 8
  %cb3 = getelementptr inbounds nuw i8, ptr %req, i64 80
  store ptr %cb, ptr %cb3, align 8
  %file5 = getelementptr inbounds nuw i8, ptr %req, i64 280
  store i32 %file, ptr %file5, align 8
  %cmp6.not = icmp eq ptr %cb, null
  br i1 %cmp6.not, label %if.else, label %if.then7

if.then7:                                         ; preds = %do.body1
  %call = tail call i32 @uv__iou_fs_statx(ptr noundef %loop, ptr noundef nonnull %req, i32 noundef 1, i32 noundef 0) #15
  %tobool.not = icmp eq i32 %call, 0
  br i1 %tobool.not, label %do.body14, label %do.end18

do.body14:                                        ; preds = %if.then7
  %active_reqs = getelementptr inbounds nuw i8, ptr %loop, i64 32
  %0 = load i32, ptr %active_reqs, align 8
  %inc = add i32 %0, 1
  store i32 %inc, ptr %active_reqs, align 8
  %work_req = getelementptr inbounds nuw i8, ptr %req, i64 336
  tail call void @uv__work_submit(ptr noundef %loop, ptr noundef nonnull %work_req, i32 noundef 1, ptr noundef nonnull @uv__fs_work, ptr noundef nonnull @uv__fs_done) #15
  br label %do.end18

if.else:                                          ; preds = %do.body1
  %work_req16 = getelementptr inbounds nuw i8, ptr %req, i64 336
  tail call void @uv__fs_work(ptr noundef nonnull %work_req16)
  %1 = load i64, ptr %result, align 8
  %conv = trunc i64 %1 to i32
  br label %do.end18

do.end18:                                         ; preds = %if.then7, %entry, %if.else, %do.body14
  %retval.0 = phi i32 [ 0, %do.body14 ], [ %conv, %if.else ], [ -22, %entry ], [ 0, %if.then7 ]
  ret i32 %retval.0
}